; ModuleID = 'source-C-CXX/60/542.c'
source_filename = "source-C-CXX/60/542.c"
target datalayout = "e-m:e-p270:32:32-p271:32:32-p272:64:64-i64:64-f80:128-n8:16:32:64-S128"
target triple = "x86_64-pc-linux-gnu"

@.str = private unnamed_addr constant [3 x i8] c"%d\00", align 1
@.str.1 = private unnamed_addr constant [4 x i8] c"%d\0A\00", align 1

; Function Attrs: nofree nounwind sspstrong uwtable
define dso_local i32 @main() local_unnamed_addr #0 {
  %1 = alloca i32, align 4
  %2 = alloca i32, align 4
  %3 = alloca [100 x i32], align 16
  %4 = bitcast i32* %1 to i8*
  call void @llvm.lifetime.start.p0i8(i64 4, i8* nonnull %4) #4
  %5 = bitcast i32* %2 to i8*
  call void @llvm.lifetime.start.p0i8(i64 4, i8* nonnull %5) #4
  %6 = bitcast [100 x i32]* %3 to i8*
  call void @llvm.lifetime.start.p0i8(i64 400, i8* nonnull %6) #4
  %7 = call i32 (i8*, ...) @__isoc99_scanf(i8* getelementptr inbounds ([3 x i8], [3 x i8]* @.str, i64 0, i64 0), i32* nonnull %2)
  %8 = load i32, i32* %2, align 4, !tbaa !5
  %9 = icmp sgt i32 %8, 0
  br i1 %9, label %12, label %69

10:                                               ; preds = %53
  %11 = icmp sgt i32 %57, 0
  br i1 %11, label %60, label %69

12:                                               ; preds = %0, %53
  %13 = phi i64 [ %56, %53 ], [ 0, %0 ]
  %14 = call i32 (i8*, ...) @__isoc99_scanf(i8* getelementptr inbounds ([3 x i8], [3 x i8]* @.str, i64 0, i64 0), i32* nonnull %1)
  %15 = load i32, i32* %1, align 4, !tbaa !5
  %16 = add i32 %15, -1
  %17 = icmp ult i32 %16, 2
  br i1 %17, label %53, label %18

18:                                               ; preds = %12
  %19 = icmp sgt i32 %15, 2
  br i1 %19, label %20, label %53

20:                                               ; preds = %18
  %21 = add i32 %15, -2
  %22 = add i32 %15, -3
  %23 = and i32 %21, 7
  %24 = icmp ult i32 %22, 7
  br i1 %24, label %41, label %25

25:                                               ; preds = %20
  %26 = and i32 %21, -8
  br label %27

27:                                               ; preds = %27, %25
  %28 = phi i32 [ 1, %25 ], [ %38, %27 ]
  %29 = phi i32 [ 1, %25 ], [ %37, %27 ]
  %30 = phi i32 [ %26, %25 ], [ %39, %27 ]
  %31 = add nsw i32 %29, %28
  %32 = add nsw i32 %28, %31
  %33 = add nsw i32 %31, %32
  %34 = add nsw i32 %32, %33
  %35 = add nsw i32 %33, %34
  %36 = add nsw i32 %34, %35
  %37 = add nsw i32 %35, %36
  %38 = add nsw i32 %36, %37
  %39 = add i32 %30, -8
  %40 = icmp eq i32 %39, 0
  br i1 %40, label %41, label %27, !llvm.loop !9

41:                                               ; preds = %27, %20
  %42 = phi i32 [ undef, %20 ], [ %38, %27 ]
  %43 = phi i32 [ 1, %20 ], [ %38, %27 ]
  %44 = phi i32 [ 1, %20 ], [ %37, %27 ]
  %45 = icmp eq i32 %23, 0
  br i1 %45, label %53, label %46

46:                                               ; preds = %41, %46
  %47 = phi i32 [ %50, %46 ], [ %43, %41 ]
  %48 = phi i32 [ %47, %46 ], [ %44, %41 ]
  %49 = phi i32 [ %51, %46 ], [ %23, %41 ]
  %50 = add nsw i32 %48, %47
  %51 = add i32 %49, -1
  %52 = icmp eq i32 %51, 0
  br i1 %52, label %53, label %46, !llvm.loop !11

53:                                               ; preds = %41, %46, %12, %18
  %54 = phi i32 [ 1, %12 ], [ 0, %18 ], [ %42, %41 ], [ %50, %46 ]
  %55 = getelementptr inbounds [100 x i32], [100 x i32]* %3, i64 0, i64 %13
  store i32 %54, i32* %55, align 4, !tbaa !5
  %56 = add nuw nsw i64 %13, 1
  %57 = load i32, i32* %2, align 4, !tbaa !5
  %58 = sext i32 %57 to i64
  %59 = icmp slt i64 %56, %58
  br i1 %59, label %12, label %10, !llvm.loop !13

60:                                               ; preds = %10, %60
  %61 = phi i64 [ %65, %60 ], [ 0, %10 ]
  %62 = getelementptr inbounds [100 x i32], [100 x i32]* %3, i64 0, i64 %61
  %63 = load i32, i32* %62, align 4, !tbaa !5
  %64 = call i32 (i8*, ...) @printf(i8* nonnull dereferenceable(1) getelementptr inbounds ([4 x i8], [4 x i8]* @.str.1, i64 0, i64 0), i32 %63)
  %65 = add nuw nsw i64 %61, 1
  %66 = load i32, i32* %2, align 4, !tbaa !5
  %67 = sext i32 %66 to i64
  %68 = icmp slt i64 %65, %67
  br i1 %68, label %60, label %69, !llvm.loop !14

69:                                               ; preds = %60, %0, %10
  call void @llvm.lifetime.end.p0i8(i64 400, i8* nonnull %6) #4
  call void @llvm.lifetime.end.p0i8(i64 4, i8* nonnull %5) #4
  call void @llvm.lifetime.end.p0i8(i64 4, i8* nonnull %4) #4
  ret i32 0
}

; Function Attrs: argmemonly mustprogress nofree nosync nounwind willreturn
declare void @llvm.lifetime.start.p0i8(i64 immarg, i8* nocapture) #1

; Function Attrs: nofree nounwind
declare noundef i32 @__isoc99_scanf(i8* nocapture noundef readonly, ...) local_unnamed_addr #2

; Function Attrs: nofree norecurse nosync nounwind readnone sspstrong uwtable
define dso_local i32 @f(i32 %0) local_unnamed_addr #3 {
  %2 = add i32 %0, -1
  %3 = icmp ult i32 %2, 2
  br i1 %3, label %39, label %4

4:                                                ; preds = %1
  %5 = icmp sgt i32 %0, 2
  br i1 %5, label %6, label %39

6:                                                ; preds = %4
  %7 = add i32 %0, -2
  %8 = add i32 %0, -3
  %9 = and i32 %7, 7
  %10 = icmp ult i32 %8, 7
  br i1 %10, label %27, label %11

11:                                               ; preds = %6
  %12 = and i32 %7, -8
  br label %13

13:                                               ; preds = %13, %11
  %14 = phi i32 [ 1, %11 ], [ %24, %13 ]
  %15 = phi i32 [ 1, %11 ], [ %23, %13 ]
  %16 = phi i32 [ %12, %11 ], [ %25, %13 ]
  %17 = add nsw i32 %14, %15
  %18 = add nsw i32 %17, %14
  %19 = add nsw i32 %18, %17
  %20 = add nsw i32 %19, %18
  %21 = add nsw i32 %20, %19
  %22 = add nsw i32 %21, %20
  %23 = add nsw i32 %22, %21
  %24 = add nsw i32 %23, %22
  %25 = add i32 %16, -8
  %26 = icmp eq i32 %25, 0
  br i1 %26, label %27, label %13, !llvm.loop !9

27:                                               ; preds = %13, %6
  %28 = phi i32 [ undef, %6 ], [ %24, %13 ]
  %29 = phi i32 [ 1, %6 ], [ %24, %13 ]
  %30 = phi i32 [ 1, %6 ], [ %23, %13 ]
  %31 = icmp eq i32 %9, 0
  br i1 %31, label %39, label %32

32:                                               ; preds = %27, %32
  %33 = phi i32 [ %36, %32 ], [ %29, %27 ]
  %34 = phi i32 [ %33, %32 ], [ %30, %27 ]
  %35 = phi i32 [ %37, %32 ], [ %9, %27 ]
  %36 = add nsw i32 %33, %34
  %37 = add i32 %35, -1
  %38 = icmp eq i32 %37, 0
  br i1 %38, label %39, label %32, !llvm.loop !15

39:                                               ; preds = %27, %32, %1, %4
  %40 = phi i32 [ 1, %1 ], [ 0, %4 ], [ %28, %27 ], [ %36, %32 ]
  ret i32 %40
}

; Function Attrs: nofree nounwind
declare noundef i32 @printf(i8* nocapture noundef readonly, ...) local_unnamed_addr #2

; Function Attrs: argmemonly mustprogress nofree nosync nounwind willreturn
declare void @llvm.lifetime.end.p0i8(i64 immarg, i8* nocapture) #1


!llvm.module.flags = !{!0, !1, !2, !3}
!llvm.ident = !{!4}

!0 = !{i32 1, !"wchar_size", i32 4}
!1 = !{i32 7, !"PIC Level", i32 2}
!2 = !{i32 7, !"PIE Level", i32 2}
!3 = !{i32 7, !"uwtable", i32 1}
!4 = !{!"clang version 13.0.0"}
!5 = !{!6, !6, i64 0}
!6 = !{!"int", !7, i64 0}
!7 = !{!"omnipotent char", !8, i64 0}
!8 = !{!"Simple C/C++ TBAA"}
!9 = distinct !{!9, !10}
!10 = !{!"llvm.loop.mustprogress"}
!11 = distinct !{!11, !12}
!12 = !{!"llvm.loop.unroll.disable"}
!13 = distinct !{!13, !10}
!14 = distinct !{!14, !10}
!15 = distinct !{!15, !12}
